; Function Attrs: nounwind uwtable
define internal range(i32 -12, 1) i32 @read_header(ptr noundef %0) #1 {
  %2 = tail call ptr @avformat_new_stream(ptr noundef %0, ptr noundef null) #7
  %.not = icmp eq ptr %2, null
  br i1 %.not, label %10, label %3

3:                                                ; preds = %1
  %4 = getelementptr inbounds nuw i8, ptr %2, i64 16
  %5 = load ptr, ptr %4, align 8, !tbaa !15
  store i32 1, ptr %5, align 8, !tbaa !25
  %6 = getelementptr inbounds nuw i8, ptr %5, i64 4
  store i32 86069, ptr %6, align 4, !tbaa !28
  %7 = getelementptr inbounds nuw i8, ptr %5, i64 152
  store i32 8000, ptr %7, align 8, !tbaa !29
  %8 = getelementptr inbounds nuw i8, ptr %5, i64 156
  store i32 16, ptr %8, align 4, !tbaa !30
  %9 = getelementptr inbounds nuw i8, ptr %5, i64 132
  store i32 1, ptr %9, align 4, !tbaa !31
  tail call void @avpriv_set_pts_info(ptr noundef nonnull %2, i32 noundef 64, i32 noundef 1, i32 noundef 100) #7
  br label %10

10:                                               ; preds = %1, %3
  %.0 = phi i32 [ 0, %3 ], [ -12, %1 ]
  ret i32 %.0
}